target datalayout = "e-m:e-p270:32:32-p271:32:32-p272:64:64-i64:64-i128:128-f80:128-n8:16:32:64-S128"
target triple = "x86_64-pc-linux-gnu"

%struct.strbuf = type { i64, i64, ptr }
%struct.wt_status = type { ptr, i32, ptr, ptr, %struct.pathspec, i32, i32, i32, i32, i32, i32, i32, i32, i32, i32, i32, ptr, [9 x [75 x i8]], i32, i32, i32, i32, i32, i32, i32, i32, i32, i32, i32, i8, %struct.wt_status_state, %struct.object_id, i32, i32, ptr, ptr, ptr, %struct.string_list, %struct.string_list, %struct.string_list, i32 }
%struct.pathspec = type { i32, i8, i32, i32, ptr }
%struct.wt_status_state = type { i32, i32, i32, i32, i32, i32, i32, i32, i32, i32, ptr, ptr, ptr, ptr, %struct.object_id, %struct.object_id, %struct.object_id }
%struct.object_id = type { [32 x i8], i32 }
%struct.string_list = type { ptr, i64, i64, i8, ptr }
%struct.string_list_item = type { ptr, ptr }

@.str.10 = private unnamed_addr constant [3 x i8] c"%s\00", align 1
@.str.29 = private unnamed_addr constant [1 x i8] zeroinitializer, align 1
@.str.70 = private unnamed_addr constant [5 x i8] c" %s\0A\00", align 1
@.str.75 = private unnamed_addr constant [8 x i8] c"%s %s%c\00", align 1
@__const.wt_shortstatus_other.onebuf = private unnamed_addr constant %struct.strbuf { i64 0, i64 0, ptr @strbuf_slopbuf }, align 8

; Function Attrs: nounwind uwtable
define internal ptr @color(i32 noundef %0, ptr noundef %1) #0 {
  %3 = alloca i32, align 4
  %4 = alloca ptr, align 8
  %5 = alloca ptr, align 8
  store i32 %0, ptr %3, align 4, !tbaa !11
  store ptr %1, ptr %4, align 8, !tbaa !4
  call void @llvm.lifetime.start.p0(i64 8, ptr %5) #12
  store ptr @.str.29, ptr %5, align 8, !tbaa !9
  %6 = load ptr, ptr %4, align 8, !tbaa !4
  %7 = getelementptr inbounds nuw %struct.wt_status, ptr %6, i32 0, i32 9
  %8 = load i32, ptr %7, align 8, !tbaa !36
  %9 = call i32 @want_color_fd(i32 noundef 1, i32 noundef %8)
  %10 = icmp ne i32 %9, 0
  br i1 %10, label %11, label %18

11:                                               ; preds = %2
  %12 = load ptr, ptr %4, align 8, !tbaa !4
  %13 = getelementptr inbounds nuw %struct.wt_status, ptr %12, i32 0, i32 17
  %14 = load i32, ptr %3, align 4, !tbaa !11
  %15 = sext i32 %14 to i64
  %16 = getelementptr inbounds [9 x [75 x i8]], ptr %13, i64 0, i64 %15
  %17 = getelementptr inbounds [75 x i8], ptr %16, i64 0, i64 0
  store ptr %17, ptr %5, align 8, !tbaa !9
  br label %18

18:                                               ; preds = %11, %2
  %19 = load i32, ptr %3, align 4, !tbaa !11
  %20 = icmp eq i32 %19, 8
  br i1 %20, label %21, label %30

21:                                               ; preds = %18
  %22 = load ptr, ptr %5, align 8, !tbaa !9
  %23 = call i32 @color_is_nil(ptr noundef %22)
  %24 = icmp ne i32 %23, 0
  br i1 %24, label %25, label %30

25:                                               ; preds = %21
  %26 = load ptr, ptr %4, align 8, !tbaa !4
  %27 = getelementptr inbounds nuw %struct.wt_status, ptr %26, i32 0, i32 17
  %28 = getelementptr inbounds [9 x [75 x i8]], ptr %27, i64 0, i64 0
  %29 = getelementptr inbounds [75 x i8], ptr %28, i64 0, i64 0
  store ptr %29, ptr %5, align 8, !tbaa !9
  br label %30

30:                                               ; preds = %25, %21, %18
  %31 = load ptr, ptr %5, align 8, !tbaa !9
  call void @llvm.lifetime.end.p0(i64 8, ptr %5) #12
  ret ptr %31
}

; Function Attrs: nounwind uwtable
define internal void @wt_shortstatus_other(ptr noundef %0, ptr noundef %1, ptr noundef %2) #0 {
  %4 = alloca ptr, align 8
  %5 = alloca ptr, align 8
  %6 = alloca ptr, align 8
  %7 = alloca %struct.strbuf, align 8
  %8 = alloca ptr, align 8
  store ptr %0, ptr %4, align 8, !tbaa !139
  store ptr %1, ptr %5, align 8, !tbaa !4
  store ptr %2, ptr %6, align 8, !tbaa !9
  %9 = load ptr, ptr %5, align 8, !tbaa !4
  %10 = getelementptr inbounds nuw %struct.wt_status, ptr %9, i32 0, i32 19
  %11 = load i32, ptr %10, align 8, !tbaa !284
  %12 = icmp ne i32 %11, 0
  br i1 %12, label %13, label %22

13:                                               ; preds = %3
  %14 = load ptr, ptr %5, align 8, !tbaa !4
  %15 = getelementptr inbounds nuw %struct.wt_status, ptr %14, i32 0, i32 35
  %16 = load ptr, ptr %15, align 8, !tbaa !28
  %17 = load ptr, ptr %6, align 8, !tbaa !9
  %18 = load ptr, ptr %4, align 8, !tbaa !139
  %19 = getelementptr inbounds nuw %struct.string_list_item, ptr %18, i32 0, i32 0
  %20 = load ptr, ptr %19, align 8, !tbaa !285
  %21 = call i32 (ptr, ptr, ...) @fprintf(ptr noundef %16, ptr noundef @.str.75, ptr noundef %17, ptr noundef %20, i32 noundef 0) #12
  br label %42

22:                                               ; preds = %3
  call void @llvm.lifetime.start.p0(i64 24, ptr %7) #12
  call void @llvm.memcpy.p0.p0.i64(ptr align 8 %7, ptr align 8 @__const.wt_shortstatus_other.onebuf, i64 24, i1 false)
  call void @llvm.lifetime.start.p0(i64 8, ptr %8) #12
  %23 = load ptr, ptr %4, align 8, !tbaa !139
  %24 = getelementptr inbounds nuw %struct.string_list_item, ptr %23, i32 0, i32 0
  %25 = load ptr, ptr %24, align 8, !tbaa !285
  %26 = load ptr, ptr %5, align 8, !tbaa !4
  %27 = getelementptr inbounds nuw %struct.wt_status, ptr %26, i32 0, i32 36
  %28 = load ptr, ptr %27, align 8, !tbaa !219
  %29 = call ptr @quote_path(ptr noundef %25, ptr noundef %28, ptr noundef %7, i32 noundef 1)
  store ptr %29, ptr %8, align 8, !tbaa !9
  %30 = load ptr, ptr %5, align 8, !tbaa !4
  %31 = getelementptr inbounds nuw %struct.wt_status, ptr %30, i32 0, i32 35
  %32 = load ptr, ptr %31, align 8, !tbaa !28
  %33 = load ptr, ptr %5, align 8, !tbaa !4
  %34 = call ptr @color(i32 noundef 3, ptr noundef %33)
  %35 = load ptr, ptr %6, align 8, !tbaa !9
  %36 = call i32 (ptr, ptr, ptr, ...) @color_fprintf(ptr noundef %32, ptr noundef %34, ptr noundef @.str.10, ptr noundef %35)
  %37 = load ptr, ptr %5, align 8, !tbaa !4
  %38 = getelementptr inbounds nuw %struct.wt_status, ptr %37, i32 0, i32 35
  %39 = load ptr, ptr %38, align 8, !tbaa !28
  %40 = load ptr, ptr %8, align 8, !tbaa !9
  %41 = call i32 (ptr, ptr, ...) @fprintf(ptr noundef %39, ptr noundef @.str.70, ptr noundef %40) #12
  call void @strbuf_release(ptr noundef %7)
  call void @llvm.lifetime.end.p0(i64 8, ptr %8) #12
  call void @llvm.lifetime.end.p0(i64 24, ptr %7) #12
  br label %42

42:                                               ; preds = %22, %13
  ret void
}