; Function Attrs: nounwind uwtable
define internal fastcc void @wt_shortstatus_other(ptr noundef nonnull readonly captures(none) %0, ptr noundef %1, ptr noundef %2) unnamed_addr #0 {
  %4 = alloca %struct.strbuf, align 8
  %5 = getelementptr inbounds nuw i8, ptr %1, i64 792
  %6 = load i32, ptr %5, align 8, !tbaa !195
  %.not = icmp eq i32 %6, 0
  br i1 %.not, label %12, label %7

7:                                                ; preds = %3
  %8 = getelementptr inbounds nuw i8, ptr %1, i64 1080
  %9 = load ptr, ptr %8, align 8, !tbaa !23
  %10 = load ptr, ptr %0, align 8, !tbaa !203
  %11 = tail call i32 (ptr, ptr, ...) @fprintf(ptr noundef %9, ptr noundef nonnull @.str.75, ptr noundef %2, ptr noundef %10, i32 noundef 0) #20
  br label %26

12:                                               ; preds = %3
  call void @llvm.lifetime.start.p0(i64 24, ptr nonnull %4) #20
  call void @llvm.memcpy.p0.p0.i64(ptr noundef nonnull align 8 dereferenceable(24) %4, ptr noundef nonnull align 8 dereferenceable(24) @__const.wt_longstatus_print_other.buf, i64 24, i1 false)
  %13 = load ptr, ptr %0, align 8, !tbaa !203
  %14 = getelementptr inbounds nuw i8, ptr %1, i64 1088
  %15 = load ptr, ptr %14, align 8, !tbaa !193
  %16 = call ptr @quote_path(ptr noundef %13, ptr noundef %15, ptr noundef nonnull %4, i32 noundef 1) #20
  %17 = getelementptr inbounds nuw i8, ptr %1, i64 1080
  %18 = load ptr, ptr %17, align 8, !tbaa !23
  %19 = getelementptr inbounds nuw i8, ptr %1, i64 72
  %20 = load i32, ptr %19, align 8, !tbaa !31
  %21 = call i32 @want_color_fd(i32 noundef 1, i32 noundef %20) #20
  %.not.i = icmp eq i32 %21, 0
  %22 = getelementptr inbounds nuw i8, ptr %1, i64 337
  %.0.i = select i1 %.not.i, ptr @.str.29, ptr %22
  %23 = call i32 (ptr, ptr, ptr, ...) @color_fprintf(ptr noundef %18, ptr noundef nonnull %.0.i, ptr noundef nonnull @.str.10, ptr noundef %2) #20
  %24 = load ptr, ptr %17, align 8, !tbaa !23
  %25 = call i32 (ptr, ptr, ...) @fprintf(ptr noundef %24, ptr noundef nonnull @.str.70, ptr noundef %16) #20
  call void @strbuf_release(ptr noundef nonnull %4) #20
  call void @llvm.lifetime.end.p0(i64 24, ptr nonnull %4) #20
  br label %26

26:                                               ; preds = %12, %7
  ret void
}